; Function Attrs: nounwind uwtable
define hidden ptr @mi_heap_recalloc(ptr noundef %0, ptr noundef %1, i64 noundef %2, i64 noundef %3) local_unnamed_addr #3 {
  %.not = icmp eq i64 %2, 1
  br i1 %.not, label %9, label %5

5:                                                ; preds = %4
  %6 = tail call { i64, i1 } @llvm.umul.with.overflow.i64(i64 range(i64 2, 1) %2, i64 %3)
  %7 = extractvalue { i64, i1 } %6, 1
  %8 = extractvalue { i64, i1 } %6, 0
  br i1 %7, label %mi_count_size_overflow.exit, label %9, !prof !18

9:                                                ; preds = %5, %4
  %storemerge.i.ph = phi i64 [ %3, %4 ], [ %8, %5 ]
  %10 = tail call ptr @_mi_heap_realloc_zero(ptr noundef %0, ptr noundef %1, i64 noundef %storemerge.i.ph, i1 noundef zeroext true) #20
  br label %mi_count_size_overflow.exit

mi_count_size_overflow.exit:                      ; preds = %5, %9
  %.0 = phi ptr [ %10, %9 ], [ null, %5 ]
  ret ptr %.0
}